target datalayout = "e-m:e-p270:32:32-p271:32:32-p272:64:64-i64:64-i128:128-f80:128-n8:16:32:64-S128"
target triple = "x86_64-pc-linux-gnu"

; Function Attrs: nounwind uwtable
define hidden i64 @_glfwEncodeUTF8(ptr noundef %0, i32 noundef %1) #0 {
  %3 = alloca ptr, align 8
  %4 = alloca i32, align 4
  %5 = alloca i64, align 8
  store ptr %0, ptr %3, align 8, !tbaa !3
  store i32 %1, ptr %4, align 4, !tbaa !8
  call void @llvm.lifetime.start.p0(i64 8, ptr %5) #10
  store i64 0, ptr %5, align 8, !tbaa !10
  %6 = load i32, ptr %4, align 4, !tbaa !8
  %7 = icmp ult i32 %6, 128
  br i1 %7, label %8, label %15

8:                                                ; preds = %2
  %9 = load i32, ptr %4, align 4, !tbaa !8
  %10 = trunc i32 %9 to i8
  %11 = load ptr, ptr %3, align 8, !tbaa !3
  %12 = load i64, ptr %5, align 8, !tbaa !10
  %13 = add i64 %12, 1
  store i64 %13, ptr %5, align 8, !tbaa !10
  %14 = getelementptr inbounds nuw i8, ptr %11, i64 %12
  store i8 %10, ptr %14, align 1, !tbaa !12
  br label %105

15:                                               ; preds = %2
  %16 = load i32, ptr %4, align 4, !tbaa !8
  %17 = icmp ult i32 %16, 2048
  br i1 %17, label %18, label %35

18:                                               ; preds = %15
  %19 = load i32, ptr %4, align 4, !tbaa !8
  %20 = lshr i32 %19, 6
  %21 = or i32 %20, 192
  %22 = trunc i32 %21 to i8
  %23 = load ptr, ptr %3, align 8, !tbaa !3
  %24 = load i64, ptr %5, align 8, !tbaa !10
  %25 = add i64 %24, 1
  store i64 %25, ptr %5, align 8, !tbaa !10
  %26 = getelementptr inbounds nuw i8, ptr %23, i64 %24
  store i8 %22, ptr %26, align 1, !tbaa !12
  %27 = load i32, ptr %4, align 4, !tbaa !8
  %28 = and i32 %27, 63
  %29 = or i32 %28, 128
  %30 = trunc i32 %29 to i8
  %31 = load ptr, ptr %3, align 8, !tbaa !3
  %32 = load i64, ptr %5, align 8, !tbaa !10
  %33 = add i64 %32, 1
  store i64 %33, ptr %5, align 8, !tbaa !10
  %34 = getelementptr inbounds nuw i8, ptr %31, i64 %32
  store i8 %30, ptr %34, align 1, !tbaa !12
  br label %104

35:                                               ; preds = %15
  %36 = load i32, ptr %4, align 4, !tbaa !8
  %37 = icmp ult i32 %36, 65536
  br i1 %37, label %38, label %64

38:                                               ; preds = %35
  %39 = load i32, ptr %4, align 4, !tbaa !8
  %40 = lshr i32 %39, 12
  %41 = or i32 %40, 224
  %42 = trunc i32 %41 to i8
  %43 = load ptr, ptr %3, align 8, !tbaa !3
  %44 = load i64, ptr %5, align 8, !tbaa !10
  %45 = add i64 %44, 1
  store i64 %45, ptr %5, align 8, !tbaa !10
  %46 = getelementptr inbounds nuw i8, ptr %43, i64 %44
  store i8 %42, ptr %46, align 1, !tbaa !12
  %47 = load i32, ptr %4, align 4, !tbaa !8
  %48 = lshr i32 %47, 6
  %49 = and i32 %48, 63
  %50 = or i32 %49, 128
  %51 = trunc i32 %50 to i8
  %52 = load ptr, ptr %3, align 8, !tbaa !3
  %53 = load i64, ptr %5, align 8, !tbaa !10
  %54 = add i64 %53, 1
  store i64 %54, ptr %5, align 8, !tbaa !10
  %55 = getelementptr inbounds nuw i8, ptr %52, i64 %53
  store i8 %51, ptr %55, align 1, !tbaa !12
  %56 = load i32, ptr %4, align 4, !tbaa !8
  %57 = and i32 %56, 63
  %58 = or i32 %57, 128
  %59 = trunc i32 %58 to i8
  %60 = load ptr, ptr %3, align 8, !tbaa !3
  %61 = load i64, ptr %5, align 8, !tbaa !10
  %62 = add i64 %61, 1
  store i64 %62, ptr %5, align 8, !tbaa !10
  %63 = getelementptr inbounds nuw i8, ptr %60, i64 %61
  store i8 %59, ptr %63, align 1, !tbaa !12
  br label %103

64:                                               ; preds = %35
  %65 = load i32, ptr %4, align 4, !tbaa !8
  %66 = icmp ult i32 %65, 1114112
  br i1 %66, label %67, label %102

67:                                               ; preds = %64
  %68 = load i32, ptr %4, align 4, !tbaa !8
  %69 = lshr i32 %68, 18
  %70 = or i32 %69, 240
  %71 = trunc i32 %70 to i8
  %72 = load ptr, ptr %3, align 8, !tbaa !3
  %73 = load i64, ptr %5, align 8, !tbaa !10
  %74 = add i64 %73, 1
  store i64 %74, ptr %5, align 8, !tbaa !10
  %75 = getelementptr inbounds nuw i8, ptr %72, i64 %73
  store i8 %71, ptr %75, align 1, !tbaa !12
  %76 = load i32, ptr %4, align 4, !tbaa !8
  %77 = lshr i32 %76, 12
  %78 = and i32 %77, 63
  %79 = or i32 %78, 128
  %80 = trunc i32 %79 to i8
  %81 = load ptr, ptr %3, align 8, !tbaa !3
  %82 = load i64, ptr %5, align 8, !tbaa !10
  %83 = add i64 %82, 1
  store i64 %83, ptr %5, align 8, !tbaa !10
  %84 = getelementptr inbounds nuw i8, ptr %81, i64 %82
  store i8 %80, ptr %84, align 1, !tbaa !12
  %85 = load i32, ptr %4, align 4, !tbaa !8
  %86 = lshr i32 %85, 6
  %87 = and i32 %86, 63
  %88 = or i32 %87, 128
  %89 = trunc i32 %88 to i8
  %90 = load ptr, ptr %3, align 8, !tbaa !3
  %91 = load i64, ptr %5, align 8, !tbaa !10
  %92 = add i64 %91, 1
  store i64 %92, ptr %5, align 8, !tbaa !10
  %93 = getelementptr inbounds nuw i8, ptr %90, i64 %91
  store i8 %89, ptr %93, align 1, !tbaa !12
  %94 = load i32, ptr %4, align 4, !tbaa !8
  %95 = and i32 %94, 63
  %96 = or i32 %95, 128
  %97 = trunc i32 %96 to i8
  %98 = load ptr, ptr %3, align 8, !tbaa !3
  %99 = load i64, ptr %5, align 8, !tbaa !10
  %100 = add i64 %99, 1
  store i64 %100, ptr %5, align 8, !tbaa !10
  %101 = getelementptr inbounds nuw i8, ptr %98, i64 %99
  store i8 %97, ptr %101, align 1, !tbaa !12
  br label %102

102:                                              ; preds = %67, %64
  br label %103

103:                                              ; preds = %102, %38
  br label %104

104:                                              ; preds = %103, %18
  br label %105

105:                                              ; preds = %104, %8
  %106 = load i64, ptr %5, align 8, !tbaa !10
  call void @llvm.lifetime.end.p0(i64 8, ptr %5) #10
  ret i64 %106
}